; Function Attrs: null_pointer_is_valid sspstrong uwtable
define internal fastcc range(i32 12, 21) i32 @resp_start(ptr noundef %0, i32 noundef range(i32 12, 17) %1, ptr noundef %2) unnamed_addr #0 {
  %4 = tail call i32 @tvb_reported_length_remaining(ptr noundef %0, i32 noundef %1)
  %5 = icmp sgt i32 %4, 0
  br i1 %5, label %6, label %13

6:                                                ; preds = %3
  %7 = load i32, ptr @hf_gryphon_start_channel, align 4
  %8 = tail call ptr @proto_tree_add_item(ptr noundef %2, i32 noundef %7, ptr noundef %0, i32 noundef %1, i32 noundef 1, i32 noundef 0)
  %9 = load i32, ptr @hf_gryphon_reserved, align 4
  %10 = add nuw nsw i32 %1, 1
  %11 = tail call ptr @proto_tree_add_item(ptr noundef %2, i32 noundef %9, ptr noundef %0, i32 noundef %10, i32 noundef 3, i32 noundef 0)
  %12 = add nuw nsw i32 %1, 4
  br label %13

13:                                               ; preds = %6, %3
  %.0 = phi i32 [ %12, %6 ], [ %1, %3 ]
  ret i32 %.0
}